target datalayout = "e-m:e-p270:32:32-p271:32:32-p272:64:64-i64:64-i128:128-f80:128-n8:16:32:64-S128"
target triple = "x86_64-pc-linux-gnu"

%struct.expert_field = type { i32, i32 }
%struct._packet_info = type { ptr, ptr, i32, i32, %struct.nstime_t, %struct.nstime_t, %struct.nstime_t, i8, ptr, ptr, ptr, ptr, %struct._address, %struct._address, %struct._address, %struct._address, %struct._address, %struct._address, i32, ptr, i8, [3 x i8], %struct.anon, i32, i32, i32, i32, ptr, i8, ptr, ptr, i16, i16, i32, i32, i16, i32, i32, ptr, ptr, ptr, i8, i8, i16, i16, i16, i32, i16, i16, ptr, ptr, ptr, ptr, ptr, i32, i32 }
%struct.nstime_t = type { i64, i32 }
%struct._address = type { i32, i32, ptr, ptr }
%struct.anon = type { i8, [3 x i8] }

@ei_bssgp_missing_mandatory_element = internal global %struct.expert_field zeroinitializer, align 4
@.str.6 = private unnamed_addr constant [71 x i8] c"Missing Mandatory element (0x%02x) %s%s, rest of dissection is suspect\00", align 1
@.str.7 = private unnamed_addr constant [1 x i8] zeroinitializer, align 1
@ei_bssgp_extraneous_data = internal global %struct.expert_field zeroinitializer, align 4

; Function Attrs: null_pointer_is_valid sspstrong uwtable
define internal void @bssgp_status(ptr noundef %0, ptr noundef %1, ptr noundef %2, i32 noundef %3, i32 noundef %4) #1 {
  %6 = alloca ptr, align 8
  %7 = alloca ptr, align 8
  %8 = alloca ptr, align 8
  %9 = alloca i32, align 4
  %10 = alloca i32, align 4
  %11 = alloca i32, align 4
  %12 = alloca i32, align 4
  %13 = alloca i32, align 4
  %14 = alloca i32, align 4
  store ptr %0, ptr %6, align 8
  store ptr %1, ptr %7, align 8
  store ptr %2, ptr %8, align 8
  store i32 %3, ptr %9, align 4
  store i32 %4, ptr %10, align 4
  call void @llvm.lifetime.start.p0(i64 4, ptr %11) #4
  call void @llvm.lifetime.start.p0(i64 4, ptr %12) #4
  call void @llvm.lifetime.start.p0(i64 4, ptr %13) #4
  %15 = load i32, ptr %9, align 4
  store i32 %15, ptr %11, align 4
  %16 = load i32, ptr %10, align 4
  store i32 %16, ptr %13, align 4
  %17 = load ptr, ptr %8, align 8
  %18 = getelementptr inbounds nuw %struct._packet_info, ptr %17, i32 0, i32 22
  %19 = load i8, ptr %18, align 4
  %20 = and i8 %19, -2
  %21 = or i8 %20, 1
  store i8 %21, ptr %18, align 4
  %22 = load i32, ptr %13, align 4
  %23 = icmp sgt i32 %22, 0
  br i1 %23, label %24, label %40

24:                                               ; preds = %5
  %25 = load ptr, ptr %6, align 8
  %26 = load ptr, ptr %7, align 8
  %27 = load ptr, ptr %8, align 8
  %28 = load i32, ptr %11, align 4
  %29 = load i32, ptr %13, align 4
  %30 = call zeroext i16 @elem_telv(ptr noundef %25, ptr noundef %26, ptr noundef %27, i8 noundef zeroext 7, i32 noundef 13, i32 noundef 7, i32 noundef %28, i32 noundef %29, ptr noundef null)
  %31 = zext i16 %30 to i32
  store i32 %31, ptr %12, align 4
  %32 = icmp ugt i32 %31, 0
  br i1 %32, label %33, label %40

33:                                               ; preds = %24
  %34 = load i32, ptr %12, align 4
  %35 = load i32, ptr %11, align 4
  %36 = add i32 %35, %34
  store i32 %36, ptr %11, align 4
  %37 = load i32, ptr %12, align 4
  %38 = load i32, ptr %13, align 4
  %39 = sub i32 %38, %37
  store i32 %39, ptr %13, align 4
  br label %47

40:                                               ; preds = %24, %5
  %41 = load ptr, ptr %7, align 8
  %42 = load ptr, ptr %8, align 8
  %43 = load ptr, ptr %6, align 8
  %44 = load i32, ptr %11, align 4
  %45 = call ptr @get_gsm_a_msg_string(i32 noundef 13, i32 noundef 7)
  %46 = call ptr (ptr, ptr, ptr, ptr, i32, i32, ptr, ...) @proto_tree_add_expert_format(ptr noundef %41, ptr noundef %42, ptr noundef @ei_bssgp_missing_mandatory_element, ptr noundef %43, i32 noundef %44, i32 noundef 0, ptr noundef @.str.6, i32 noundef 7, ptr noundef %45, ptr noundef @.str.7)
  br label %47

47:                                               ; preds = %40, %33
  %48 = load i32, ptr %13, align 4
  %49 = icmp sle i32 %48, 0
  br i1 %49, label %50, label %51

50:                                               ; preds = %47
  store i32 1, ptr %14, align 4
  br label %103

51:                                               ; preds = %47
  %52 = load ptr, ptr %6, align 8
  %53 = load ptr, ptr %7, align 8
  %54 = load ptr, ptr %8, align 8
  %55 = load i32, ptr %11, align 4
  %56 = load i32, ptr %13, align 4
  %57 = call zeroext i16 @elem_telv(ptr noundef %52, ptr noundef %53, ptr noundef %54, i8 noundef zeroext 4, i32 noundef 13, i32 noundef 4, i32 noundef %55, i32 noundef %56, ptr noundef null)
  %58 = zext i16 %57 to i32
  store i32 %58, ptr %12, align 4
  %59 = icmp ugt i32 %58, 0
  br i1 %59, label %60, label %67

60:                                               ; preds = %51
  %61 = load i32, ptr %12, align 4
  %62 = load i32, ptr %11, align 4
  %63 = add i32 %62, %61
  store i32 %63, ptr %11, align 4
  %64 = load i32, ptr %12, align 4
  %65 = load i32, ptr %13, align 4
  %66 = sub i32 %65, %64
  store i32 %66, ptr %13, align 4
  br label %67

67:                                               ; preds = %60, %51
  %68 = load i32, ptr %13, align 4
  %69 = icmp sle i32 %68, 0
  br i1 %69, label %70, label %71

70:                                               ; preds = %67
  store i32 1, ptr %14, align 4
  br label %103

71:                                               ; preds = %67
  %72 = load ptr, ptr %6, align 8
  %73 = load ptr, ptr %7, align 8
  %74 = load ptr, ptr %8, align 8
  %75 = load i32, ptr %11, align 4
  %76 = load i32, ptr %13, align 4
  %77 = call zeroext i16 @elem_telv(ptr noundef %72, ptr noundef %73, ptr noundef %74, i8 noundef zeroext 21, i32 noundef 13, i32 noundef 21, i32 noundef %75, i32 noundef %76, ptr noundef null)
  %78 = zext i16 %77 to i32
  store i32 %78, ptr %12, align 4
  %79 = icmp ugt i32 %78, 0
  br i1 %79, label %80, label %87

80:                                               ; preds = %71
  %81 = load i32, ptr %12, align 4
  %82 = load i32, ptr %11, align 4
  %83 = add i32 %82, %81
  store i32 %83, ptr %11, align 4
  %84 = load i32, ptr %12, align 4
  %85 = load i32, ptr %13, align 4
  %86 = sub i32 %85, %84
  store i32 %86, ptr %13, align 4
  br label %87

87:                                               ; preds = %80, %71
  %88 = load i32, ptr %13, align 4
  %89 = icmp ugt i32 %88, 0
  br i1 %89, label %90, label %102

90:                                               ; preds = %87
  %91 = load ptr, ptr %7, align 8
  %92 = load ptr, ptr %8, align 8
  %93 = load ptr, ptr %6, align 8
  %94 = load i32, ptr %11, align 4
  %95 = load i32, ptr %13, align 4
  %96 = sub i32 %95, 0
  %97 = call ptr @proto_tree_add_expert(ptr noundef %91, ptr noundef %92, ptr noundef @ei_bssgp_extraneous_data, ptr noundef %93, i32 noundef %94, i32 noundef %96)
  %98 = load i32, ptr %13, align 4
  %99 = sub i32 %98, 0
  %100 = load i32, ptr %11, align 4
  %101 = add i32 %100, %99
  store i32 %101, ptr %11, align 4
  br label %102

102:                                              ; preds = %90, %87
  store i32 0, ptr %14, align 4
  br label %103

103:                                              ; preds = %102, %70, %50
  call void @llvm.lifetime.end.p0(i64 4, ptr %13) #4
  call void @llvm.lifetime.end.p0(i64 4, ptr %12) #4
  call void @llvm.lifetime.end.p0(i64 4, ptr %11) #4
  %104 = load i32, ptr %14, align 4
  switch i32 %104, label %106 [
    i32 0, label %105
    i32 1, label %105
  ]

105:                                              ; preds = %103, %103
  ret void

106:                                              ; preds = %103
  unreachable
}