; Function Attrs: null_pointer_is_valid sspstrong uwtable
define internal void @bssgp_status(ptr noundef %0, ptr noundef %1, ptr noundef %2, i32 noundef %3, i32 noundef %4) #1 {
  %6 = getelementptr inbounds nuw i8, ptr %2, i64 276
  %7 = load i8, ptr %6, align 4
  %8 = or i8 %7, 1
  store i8 %8, ptr %6, align 4
  %9 = icmp sgt i32 %4, 0
  br i1 %9, label %10, label %16

10:                                               ; preds = %5
  %11 = tail call zeroext i16 @elem_telv(ptr noundef %0, ptr noundef %1, ptr noundef %2, i8 noundef zeroext 7, i32 noundef 13, i32 noundef 7, i32 noundef %3, i32 noundef %4, ptr noundef null)
  %.not = icmp eq i16 %11, 0
  br i1 %.not, label %16, label %12

12:                                               ; preds = %10
  %13 = zext i16 %11 to i32
  %14 = add i32 %3, %13
  %15 = sub nsw i32 %4, %13
  br label %19

16:                                               ; preds = %10, %5
  %17 = tail call ptr @get_gsm_a_msg_string(i32 noundef 13, i32 noundef 7)
  %18 = tail call ptr (ptr, ptr, ptr, ptr, i32, i32, ptr, ...) @proto_tree_add_expert_format(ptr noundef %1, ptr noundef %2, ptr noundef nonnull @ei_bssgp_missing_mandatory_element, ptr noundef %0, i32 noundef %3, i32 noundef 0, ptr noundef nonnull @.str.6, i32 noundef 7, ptr noundef %17, ptr noundef nonnull @.str.7)
  br label %19

19:                                               ; preds = %16, %12
  %.044 = phi i32 [ %14, %12 ], [ %3, %16 ]
  %.0 = phi i32 [ %15, %12 ], [ %4, %16 ]
  %20 = icmp slt i32 %.0, 1
  br i1 %20, label %34, label %21

21:                                               ; preds = %19
  %22 = tail call zeroext i16 @elem_telv(ptr noundef %0, ptr noundef %1, ptr noundef %2, i8 noundef zeroext 4, i32 noundef 13, i32 noundef 4, i32 noundef %.044, i32 noundef %.0, ptr noundef null)
  %23 = zext i16 %22 to i32
  %24 = sub nsw i32 %.0, %23
  %25 = icmp slt i32 %24, 1
  br i1 %25, label %34, label %26

26:                                               ; preds = %21
  %27 = add i32 %.044, %23
  %28 = tail call zeroext i16 @elem_telv(ptr noundef %0, ptr noundef %1, ptr noundef %2, i8 noundef zeroext 21, i32 noundef 13, i32 noundef 21, i32 noundef %27, i32 noundef %24, ptr noundef null)
  %29 = zext i16 %28 to i32
  %.not53 = icmp eq i32 %24, %29
  br i1 %.not53, label %34, label %30

30:                                               ; preds = %26
  %31 = sub nsw i32 %24, %29
  %32 = add i32 %27, %29
  %33 = tail call ptr @proto_tree_add_expert(ptr noundef %1, ptr noundef %2, ptr noundef nonnull @ei_bssgp_extraneous_data, ptr noundef %0, i32 noundef %32, i32 noundef %31)
  br label %34

34:                                               ; preds = %26, %30, %21, %19
  ret void
}